; Function Attrs: mustprogress uwtable
define noundef i32 @_ZNK7Imf_3_415TiledOutputFile9numYTilesEi(ptr noundef nonnull readonly align 8 captures(none) dereferenceable(25) %0, i32 noundef %1) local_unnamed_addr #5 align 2 personality ptr @__gxx_personality_v0 {
  %3 = alloca %"class.std::__cxx11::basic_stringstream", align 8
  %4 = icmp slt i32 %1, 0
  br i1 %4, label %10, label %5

5:                                                ; preds = %2
  %6 = getelementptr inbounds nuw i8, ptr %0, i64 8
  %7 = load ptr, ptr %6, align 8, !tbaa !112
  %8 = getelementptr inbounds nuw i8, ptr %7, i64 160
  %9 = load i32, ptr %8, align 8, !tbaa !149
  %.not = icmp slt i32 %1, %9
  br i1 %.not, label %29, label %10

10:                                               ; preds = %2, %5
  tail call void @_Z13iex_debugTrapv()
  call void @llvm.lifetime.start.p0(i64 392, ptr nonnull %3) #25
  call void @_ZNSt7__cxx1118basic_stringstreamIcSt11char_traitsIcESaIcEEC1Ev(ptr noundef nonnull align 8 dereferenceable(128) %3)
  %11 = getelementptr inbounds nuw i8, ptr %3, i64 16
  %12 = invoke noundef nonnull align 8 dereferenceable(8) ptr @_ZSt16__ostream_insertIcSt11char_traitsIcEERSt13basic_ostreamIT_T0_ES6_PKS3_l(ptr noundef nonnull align 8 dereferenceable(8) %11, ptr noundef nonnull @.str.40, i64 noundef 41)
          to label %_ZStlsISt11char_traitsIcEERSt13basic_ostreamIcT_ES5_PKc.exit unwind label %24

_ZStlsISt11char_traitsIcEERSt13basic_ostreamIcT_ES5_PKc.exit: ; preds = %10
  %13 = getelementptr inbounds nuw i8, ptr %0, i64 16
  %14 = load ptr, ptr %13, align 8, !tbaa !117
  %15 = getelementptr inbounds nuw i8, ptr %14, i64 40
  %16 = load ptr, ptr %15, align 8, !tbaa !119
  %17 = invoke noundef ptr @_ZNK7Imf_3_47OStream8fileNameEv(ptr noundef nonnull align 8 dereferenceable(40) %16)
          to label %18 unwind label %24

18:                                               ; preds = %_ZStlsISt11char_traitsIcEERSt13basic_ostreamIcT_ES5_PKc.exit
  %19 = invoke noundef nonnull align 8 dereferenceable(8) ptr @_ZStlsISt11char_traitsIcEERSt13basic_ostreamIcT_ES5_PKc(ptr noundef nonnull align 8 dereferenceable(8) %11, ptr noundef %17)
          to label %20 unwind label %24

20:                                               ; preds = %18
  %21 = invoke noundef nonnull align 8 dereferenceable(8) ptr @_ZSt16__ostream_insertIcSt11char_traitsIcEERSt13basic_ostreamIT_T0_ES6_PKS3_l(ptr noundef nonnull align 8 dereferenceable(8) %19, ptr noundef nonnull @.str.41, i64 noundef 35)
          to label %_ZStlsISt11char_traitsIcEERSt13basic_ostreamIcT_ES5_PKc.exit8 unwind label %24

_ZStlsISt11char_traitsIcEERSt13basic_ostreamIcT_ES5_PKc.exit8: ; preds = %20
  %22 = call ptr @__cxa_allocate_exception(i64 72) #25
  invoke void @_ZN7Iex_3_48LogicExcC1ERNSt7__cxx1118basic_stringstreamIcSt11char_traitsIcESaIcEEE(ptr noundef nonnull align 8 dereferenceable(72) %22, ptr noundef nonnull align 8 dereferenceable(128) %3)
          to label %23 unwind label %26

23:                                               ; preds = %_ZStlsISt11char_traitsIcEERSt13basic_ostreamIcT_ES5_PKc.exit8
  invoke void @__cxa_throw(ptr nonnull %22, ptr nonnull @_ZTIN7Iex_3_48LogicExcE, ptr nonnull @_ZN7Iex_3_48LogicExcD1Ev) #30
          to label %35 unwind label %24

24:                                               ; preds = %20, %10, %23, %18, %_ZStlsISt11char_traitsIcEERSt13basic_ostreamIcT_ES5_PKc.exit
  %25 = landingpad { ptr, i32 }
          cleanup
  br label %28

26:                                               ; preds = %_ZStlsISt11char_traitsIcEERSt13basic_ostreamIcT_ES5_PKc.exit8
  %27 = landingpad { ptr, i32 }
          cleanup
  call void @__cxa_free_exception(ptr nonnull %22) #25
  br label %28

28:                                               ; preds = %26, %24
  %.pn = phi { ptr, i32 } [ %25, %24 ], [ %27, %26 ]
  call void @_ZNSt7__cxx1118basic_stringstreamIcSt11char_traitsIcESaIcEED1Ev(ptr noundef nonnull align 8 dereferenceable(128) %3) #25
  call void @llvm.lifetime.end.p0(i64 392, ptr nonnull %3) #25
  resume { ptr, i32 } %.pn

29:                                               ; preds = %5
  %30 = getelementptr inbounds nuw i8, ptr %7, i64 176
  %31 = load ptr, ptr %30, align 8, !tbaa !90
  %32 = zext nneg i32 %1 to i64
  %33 = getelementptr inbounds nuw i32, ptr %31, i64 %32
  %34 = load i32, ptr %33, align 4, !tbaa !129
  ret i32 %34

35:                                               ; preds = %23
  unreachable
}